target datalayout = "e-m:e-p270:32:32-p271:32:32-p272:64:64-i64:64-i128:128-f80:128-n8:16:32:64-S128"
target triple = "x86_64-pc-linux-gnu"

; Function Attrs: nounwind uwtable
define dso_local i32 @archive_read_open_filename(ptr noundef %0, ptr noundef %1, i64 noundef %2) #0 {
  %4 = alloca ptr, align 8
  %5 = alloca ptr, align 8
  %6 = alloca i64, align 8
  %7 = alloca [2 x ptr], align 16
  store ptr %0, ptr %4, align 8
  store ptr %1, ptr %5, align 8
  store i64 %2, ptr %6, align 8
  %8 = load ptr, ptr %5, align 8
  %9 = getelementptr inbounds [2 x ptr], ptr %7, i64 0, i64 0
  store ptr %8, ptr %9, align 16
  %10 = getelementptr inbounds [2 x ptr], ptr %7, i64 0, i64 1
  store ptr null, ptr %10, align 8
  %11 = load ptr, ptr %4, align 8
  %12 = getelementptr inbounds [2 x ptr], ptr %7, i64 0, i64 0
  %13 = load i64, ptr %6, align 8
  %14 = call i32 @archive_read_open_filenames(ptr noundef %11, ptr noundef %12, i64 noundef %13)
  ret i32 %14
}

; Function Attrs: nounwind uwtable
define dso_local i32 @archive_read_open_file(ptr noundef %0, ptr noundef %1, i64 noundef %2) #0 {
  %4 = alloca ptr, align 8
  %5 = alloca ptr, align 8
  %6 = alloca i64, align 8
  store ptr %0, ptr %4, align 8
  store ptr %1, ptr %5, align 8
  store i64 %2, ptr %6, align 8
  %7 = load ptr, ptr %4, align 8
  %8 = load ptr, ptr %5, align 8
  %9 = load i64, ptr %6, align 8
  %10 = call i32 @archive_read_open_filename(ptr noundef %7, ptr noundef %8, i64 noundef %9)
  ret i32 %10
}