; Function Attrs: nounwind uwtable
define dso_local i32 @archive_read_open_file(ptr noundef %0, ptr noundef %1, i64 noundef %2) local_unnamed_addr #0 {
  %4 = alloca [2 x ptr], align 16
  call void @llvm.lifetime.start.p0(i64 16, ptr nonnull %4)
  store ptr %1, ptr %4, align 16
  %5 = getelementptr inbounds nuw i8, ptr %4, i64 8
  store ptr null, ptr %5, align 8
  %6 = call i32 @archive_read_open_filenames(ptr noundef %0, ptr noundef nonnull %4, i64 noundef %2)
  call void @llvm.lifetime.end.p0(i64 16, ptr nonnull %4)
  ret i32 %6
}